ccopy_reg
_reconstructor
p0
(cgoogle.oauth2.credentials
Credentials
p1
c__builtin__
object
p2
Ntp3
Rp4
(dp5
S'_quota_project_id'
p6
NsS'_token_uri'
p7
Vhttps://oauth2.googleapis.com/token
p8
sS'_scopes'
p9
(lp10
S'https://www.googleapis.com/auth/drive'
p11
asS'_default_scopes'
p12
NsS'expiry'
p13
cdatetime
datetime
p14
(S'\x07\xe5\t\x07\x14\x146\x0c\xee\xb1'
p15
tp16
Rp17
sS'token'
p18
Vya29.a0ARrdaM-67YHz5UIx0yAlXs4UGKuAtA7hPP_gPbBrLoNVdDV_rWydRvrZEhAjs-zJMPPEFOAlJJlMYWKtByck6HkUm1DCgnF6Hk2I3Q_SR9V1lS_Yr2GrD-S3jTLG_aPPJWIIfw4IKBTOxa71iOyL_Cp5RiNo
p19
sS'_refresh_token'
p20
V1//0gMHIJfFq8PyvCgYIARAAGBASNgF-L9IriN3hN-SEJJhMjr5WiUYMtt8UPtiadJ1PKnjG8I3l3p4DupCKRDapW8qjuaGd-COMug
p21
sS'_client_secret'
p22
VZwXyBNEDMmYZzsfmJzBQE-PG
p23
sS'_client_id'
p24
V350270340851-7t7qml8bqh4rvfkksn440hu08gqcm71o.apps.googleusercontent.com
p25
sS'_id_token'
p26
NsS'_rapt_token'
p27
Nsb.